; Function Attrs: mustprogress nofree norecurse nosync nounwind willreturn memory(argmem: readwrite) uwtable
define ptr @php_stream_encloses(ptr noundef %0, ptr nocapture noundef %1) local_unnamed_addr #3 {
  %3 = getelementptr inbounds i8, ptr %1, i64 200
  %4 = load ptr, ptr %3, align 8
  %5 = getelementptr inbounds i8, ptr %1, i64 96
  %6 = load i16, ptr %5, align 8
  %7 = or i16 %6, 16
  store i16 %7, ptr %5, align 8
  store ptr %0, ptr %3, align 8
  ret ptr %4
}